target datalayout = "e-m:e-p270:32:32-p271:32:32-p272:64:64-i64:64-i128:128-f80:128-n8:16:32:64-S128"
target triple = "x86_64-pc-linux-gnu"

%struct.CordRep = type { %struct.Generic, %union.ConcatOrFunc }
%struct.Generic = type { i8, i8, i8, i8, i64 }
%union.ConcatOrFunc = type { %struct.Concatenation }
%struct.Concatenation = type { ptr, ptr }
%struct.Function = type { ptr, ptr }

@CORD_oom_fn = global ptr null, align 8
@stderr = external global ptr, align 8
@.str = private unnamed_addr constant [4 x i8] c"%s\0A\00", align 1
@.str.1 = private unnamed_addr constant [14 x i8] c"Out of memory\00", align 1

; Function Attrs: nounwind uwtable
define hidden void @CORD__call_oom_fn() #0 {
  %1 = load ptr, ptr @CORD_oom_fn, align 8, !tbaa !3
  %2 = icmp ne ptr %1, null
  br i1 %2, label %3, label %5

3:                                                ; preds = %0
  %4 = load ptr, ptr @CORD_oom_fn, align 8, !tbaa !3
  call void %4()
  br label %5

5:                                                ; preds = %3, %0
  ret void
}

; Function Attrs: nounwind uwtable
define internal ptr @CORD_from_fn_inner(ptr noundef %0, ptr noundef %1, i64 noundef %2) #0 {
  %4 = alloca ptr, align 8
  %5 = alloca ptr, align 8
  %6 = alloca ptr, align 8
  %7 = alloca i64, align 8
  %8 = alloca ptr, align 8
  %9 = alloca i64, align 8
  %10 = alloca [32 x i8], align 16
  %11 = alloca i8, align 1
  %12 = alloca i32, align 4
  %13 = alloca ptr, align 8
  store ptr %0, ptr %5, align 8, !tbaa !3
  store ptr %1, ptr %6, align 8, !tbaa !3
  store i64 %2, ptr %7, align 8, !tbaa !13
  %14 = load i64, ptr %7, align 8, !tbaa !13
  %15 = icmp eq i64 0, %14
  br i1 %15, label %16, label %17

16:                                               ; preds = %3
  store ptr null, ptr %4, align 8
  br label %88

17:                                               ; preds = %3
  %18 = load i64, ptr %7, align 8, !tbaa !13
  %19 = icmp ule i64 %18, 31
  br i1 %19, label %20, label %63

20:                                               ; preds = %17
  call void @llvm.lifetime.start.p0(i64 8, ptr %8) #9
  call void @llvm.lifetime.start.p0(i64 8, ptr %9) #9
  call void @llvm.lifetime.start.p0(i64 32, ptr %10) #9
  store i64 0, ptr %9, align 8, !tbaa !13
  br label %21

21:                                               ; preds = %41, %20
  %22 = load i64, ptr %9, align 8, !tbaa !13
  %23 = load i64, ptr %7, align 8, !tbaa !13
  %24 = icmp ult i64 %22, %23
  br i1 %24, label %25, label %44

25:                                               ; preds = %21
  call void @llvm.lifetime.start.p0(i64 1, ptr %11) #9
  %26 = load ptr, ptr %5, align 8, !tbaa !3
  %27 = load i64, ptr %9, align 8, !tbaa !13
  %28 = load ptr, ptr %6, align 8, !tbaa !3
  %29 = call signext i8 %26(i64 noundef %27, ptr noundef %28)
  store i8 %29, ptr %11, align 1, !tbaa !17
  %30 = load i8, ptr %11, align 1, !tbaa !17
  %31 = sext i8 %30 to i32
  %32 = icmp eq i32 %31, 0
  br i1 %32, label %33, label %34

33:                                               ; preds = %25
  store i32 5, ptr %12, align 4
  br label %38

34:                                               ; preds = %25
  %35 = load i8, ptr %11, align 1, !tbaa !17
  %36 = load i64, ptr %9, align 8, !tbaa !13
  %37 = getelementptr inbounds nuw [32 x i8], ptr %10, i64 0, i64 %36
  store i8 %35, ptr %37, align 1, !tbaa !17
  store i32 0, ptr %12, align 4
  br label %38

38:                                               ; preds = %33, %34
  call void @llvm.lifetime.end.p0(i64 1, ptr %11) #9
  %39 = load i32, ptr %12, align 4
  switch i32 %39, label %61 [
    i32 0, label %40
  ]

40:                                               ; preds = %38
  br label %41

41:                                               ; preds = %40
  %42 = load i64, ptr %9, align 8, !tbaa !13
  %43 = add i64 %42, 1
  store i64 %43, ptr %9, align 8, !tbaa !13
  br label %21, !llvm.loop !38

44:                                               ; preds = %21
  %45 = load i64, ptr %7, align 8, !tbaa !13
  %46 = add i64 %45, 1
  %47 = call noalias ptr @GC_malloc_atomic(i64 noundef %46) #11
  store ptr %47, ptr %8, align 8, !tbaa !7
  %48 = load ptr, ptr %8, align 8, !tbaa !7
  %49 = icmp eq ptr null, %48
  br i1 %49, label %50, label %53

50:                                               ; preds = %44
  call void @CORD__call_oom_fn()
  %51 = load ptr, ptr @stderr, align 8, !tbaa !9
  %52 = call i32 (ptr, ptr, ...) @fprintf(ptr noundef %51, ptr noundef @.str, ptr noundef @.str.1) #9
  call void @abort() #12
  unreachable

53:                                               ; preds = %44
  %54 = load ptr, ptr %8, align 8, !tbaa !7
  %55 = getelementptr inbounds [32 x i8], ptr %10, i64 0, i64 0
  %56 = load i64, ptr %7, align 8, !tbaa !13
  call void @llvm.memcpy.p0.p0.i64(ptr align 1 %54, ptr align 16 %55, i64 %56, i1 false)
  %57 = load ptr, ptr %8, align 8, !tbaa !7
  %58 = load i64, ptr %7, align 8, !tbaa !13
  %59 = getelementptr inbounds nuw i8, ptr %57, i64 %58
  store i8 0, ptr %59, align 1, !tbaa !17
  %60 = load ptr, ptr %8, align 8, !tbaa !7
  store ptr %60, ptr %4, align 8
  store i32 1, ptr %12, align 4
  br label %61

61:                                               ; preds = %53, %38
  call void @llvm.lifetime.end.p0(i64 32, ptr %10) #9
  call void @llvm.lifetime.end.p0(i64 8, ptr %9) #9
  call void @llvm.lifetime.end.p0(i64 8, ptr %8) #9
  %62 = load i32, ptr %12, align 4
  switch i32 %62, label %90 [
    i32 1, label %88
    i32 5, label %64
  ]

63:                                               ; preds = %17
  br label %64

64:                                               ; preds = %63, %61
  call void @llvm.lifetime.start.p0(i64 8, ptr %13) #9
  %65 = call noalias ptr @GC_malloc(i64 noundef 32) #11
  store ptr %65, ptr %13, align 8, !tbaa !3
  %66 = load ptr, ptr %13, align 8, !tbaa !3
  %67 = icmp eq ptr null, %66
  br i1 %67, label %68, label %71

68:                                               ; preds = %64
  call void @CORD__call_oom_fn()
  %69 = load ptr, ptr @stderr, align 8, !tbaa !9
  %70 = call i32 (ptr, ptr, ...) @fprintf(ptr noundef %69, ptr noundef @.str, ptr noundef @.str.1) #9
  call void @abort() #12
  unreachable

71:                                               ; preds = %64
  %72 = load ptr, ptr %13, align 8, !tbaa !3
  %73 = getelementptr inbounds nuw %struct.CordRep, ptr %72, i32 0, i32 0
  %74 = getelementptr inbounds nuw %struct.Generic, ptr %73, i32 0, i32 1
  store i8 4, ptr %74, align 1, !tbaa !19
  %75 = load i64, ptr %7, align 8, !tbaa !13
  %76 = load ptr, ptr %13, align 8, !tbaa !3
  %77 = getelementptr inbounds nuw %struct.CordRep, ptr %76, i32 0, i32 0
  %78 = getelementptr inbounds nuw %struct.Generic, ptr %77, i32 0, i32 4
  store i64 %75, ptr %78, align 8, !tbaa !24
  %79 = load ptr, ptr %5, align 8, !tbaa !3
  %80 = load ptr, ptr %13, align 8, !tbaa !3
  %81 = getelementptr inbounds nuw %struct.CordRep, ptr %80, i32 0, i32 1
  %82 = getelementptr inbounds nuw %struct.Function, ptr %81, i32 0, i32 0
  store ptr %79, ptr %82, align 8, !tbaa !17
  %83 = load ptr, ptr %13, align 8, !tbaa !3
  %84 = getelementptr inbounds nuw %struct.CordRep, ptr %83, i32 0, i32 1
  %85 = getelementptr inbounds nuw %struct.Function, ptr %84, i32 0, i32 1
  %86 = load ptr, ptr %6, align 8, !tbaa !3
  call void @GC_ptr_store_and_dirty(ptr noundef %85, ptr noundef %86)
  %87 = load ptr, ptr %13, align 8, !tbaa !3
  store ptr %87, ptr %4, align 8
  store i32 1, ptr %12, align 4
  call void @llvm.lifetime.end.p0(i64 8, ptr %13) #9
  br label %88

88:                                               ; preds = %71, %61, %16
  %89 = load ptr, ptr %4, align 8
  ret ptr %89

90:                                               ; preds = %61
  unreachable
}