; Function Attrs: nounwind uwtable
define internal fastcc ptr @CORD_from_fn_inner(ptr noundef %0, ptr noundef %1, i64 noundef %2) unnamed_addr #2 {
  %4 = alloca [32 x i8], align 16
  %5 = icmp eq i64 %2, 0
  br i1 %5, label %38, label %6

6:                                                ; preds = %3
  %7 = icmp ult i64 %2, 32
  br i1 %7, label %8, label %25

8:                                                ; preds = %6
  call void @llvm.lifetime.start.p0(i64 32, ptr nonnull %4) #17
  br label %9

9:                                                ; preds = %8, %11
  %.03143 = phi i64 [ 0, %8 ], [ %13, %11 ]
  %10 = tail call signext i8 %0(i64 noundef %.03143, ptr noundef %1) #17
  %.not = icmp eq i8 %10, 0
  br i1 %.not, label %24, label %11

11:                                               ; preds = %9
  %12 = getelementptr inbounds nuw [32 x i8], ptr %4, i64 0, i64 %.03143
  store i8 %10, ptr %12, align 1, !tbaa !11
  %13 = add nuw i64 %.03143, 1
  %exitcond.not = icmp eq i64 %13, %2
  br i1 %exitcond.not, label %14, label %9, !llvm.loop !37

14:                                               ; preds = %11
  %15 = add nuw nsw i64 %2, 1
  %16 = tail call noalias ptr @GC_malloc_atomic(i64 noundef %15) #19
  %17 = icmp eq ptr %16, null
  br i1 %17, label %18, label %.thread38

18:                                               ; preds = %14
  %19 = load ptr, ptr @CORD_oom_fn, align 8, !tbaa !3
  %.not.i = icmp eq ptr %19, null
  br i1 %.not.i, label %CORD__call_oom_fn.exit, label %20

20:                                               ; preds = %18
  tail call void %19() #17
  br label %CORD__call_oom_fn.exit

CORD__call_oom_fn.exit:                           ; preds = %18, %20
  %21 = load ptr, ptr @stderr, align 8, !tbaa !7
  %22 = tail call i32 (ptr, ptr, ...) @fprintf(ptr noundef %21, ptr noundef nonnull @.str, ptr noundef nonnull @.str.1) #20
  tail call void @abort() #21
  unreachable

.thread38:                                        ; preds = %14
  call void @llvm.memcpy.p0.p0.i64(ptr nonnull align 1 %16, ptr nonnull align 16 %4, i64 %2, i1 false)
  %23 = getelementptr inbounds nuw i8, ptr %16, i64 %2
  store i8 0, ptr %23, align 1, !tbaa !11
  call void @llvm.lifetime.end.p0(i64 32, ptr nonnull %4) #17
  br label %38

24:                                               ; preds = %9
  call void @llvm.lifetime.end.p0(i64 32, ptr nonnull %4) #17
  br label %25

25:                                               ; preds = %24, %6
  %26 = tail call noalias dereferenceable_or_null(32) ptr @GC_malloc(i64 noundef 32) #19
  %27 = icmp eq ptr %26, null
  br i1 %27, label %28, label %33

28:                                               ; preds = %25
  %29 = load ptr, ptr @CORD_oom_fn, align 8, !tbaa !3
  %.not.i35 = icmp eq ptr %29, null
  br i1 %.not.i35, label %CORD__call_oom_fn.exit36, label %30

30:                                               ; preds = %28
  tail call void %29() #17
  br label %CORD__call_oom_fn.exit36

CORD__call_oom_fn.exit36:                         ; preds = %28, %30
  %31 = load ptr, ptr @stderr, align 8, !tbaa !7
  %32 = tail call i32 (ptr, ptr, ...) @fprintf(ptr noundef %31, ptr noundef nonnull @.str, ptr noundef nonnull @.str.1) #20
  tail call void @abort() #21
  unreachable

33:                                               ; preds = %25
  %34 = getelementptr inbounds nuw i8, ptr %26, i64 1
  store i8 4, ptr %34, align 1, !tbaa !13
  %35 = getelementptr inbounds nuw i8, ptr %26, i64 8
  store i64 %2, ptr %35, align 8, !tbaa !17
  %36 = getelementptr inbounds nuw i8, ptr %26, i64 16
  store ptr %0, ptr %36, align 8, !tbaa !11
  %37 = getelementptr inbounds nuw i8, ptr %26, i64 24
  tail call void @GC_ptr_store_and_dirty(ptr noundef nonnull %37, ptr noundef %1) #17
  br label %38

38:                                               ; preds = %.thread38, %3, %33
  %.0 = phi ptr [ %26, %33 ], [ null, %3 ], [ %16, %.thread38 ]
  ret ptr %.0
}